; Function Attrs: mustprogress nofree norecurse nosync nounwind willreturn memory(argmem: readwrite) uwtable
define void @_ZNK3g2o21RobustKernelSaturated9robustifyEdRN5Eigen6MatrixIdLi3ELi1ELi0ELi3ELi1EEE(ptr noundef nonnull readonly align 8 captures(none) dereferenceable(16) %0, double noundef %1, ptr noundef nonnull writeonly align 8 captures(none) dereferenceable(24) initializes((0, 24)) %2) unnamed_addr #9 align 2 personality ptr @__gxx_personality_v0 {
  %4 = getelementptr inbounds nuw i8, ptr %0, i64 8
  %5 = load double, ptr %4, align 8, !tbaa !21
  %6 = fmul double %5, %5
  %7 = fcmp ugt double %1, %6
  %.sink12 = select i1 %7, double %6, double %1
  %.sink = select i1 %7, double 0.000000e+00, double 1.000000e+00
  store double %.sink12, ptr %2, align 8, !tbaa !24
  %8 = getelementptr inbounds nuw i8, ptr %2, i64 8
  store double %.sink, ptr %8, align 8, !tbaa !24
  %9 = getelementptr inbounds nuw i8, ptr %2, i64 16
  store double 0.000000e+00, ptr %9, align 8, !tbaa !24
  ret void
}